target datalayout = "e-m:e-p270:32:32-p271:32:32-p272:64:64-i64:64-i128:128-f80:128-n8:16:32:64-S128"
target triple = "x86_64-pc-linux-gnu"

%struct.tr2tls_thread_ctx = type { ptr, ptr, i64, i64, i32, %struct.tr2_timer_block, %struct.tr2_counter_block, i8 }
%struct.tr2_timer_block = type { [2 x %struct.tr2_timer] }
%struct.tr2_timer = type { i64, i64, i64, i64, i64, i32 }
%struct.tr2_counter_block = type { [6 x %struct.tr2_counter] }
%struct.tr2_counter = type { i64 }

; Function Attrs: nounwind uwtable
define internal void @tr2tls_key_destructor(ptr noundef %0) #0 {
  %2 = alloca ptr, align 8
  %3 = alloca ptr, align 8
  store ptr %0, ptr %2, align 8, !tbaa !35
  call void @llvm.lifetime.start.p0(i64 8, ptr %3) #8
  %4 = load ptr, ptr %2, align 8, !tbaa !35
  store ptr %4, ptr %3, align 8, !tbaa !11
  %5 = load ptr, ptr %3, align 8, !tbaa !11
  %6 = getelementptr inbounds nuw %struct.tr2tls_thread_ctx, ptr %5, i32 0, i32 0
  %7 = load ptr, ptr %6, align 8, !tbaa !24
  call void @free(ptr noundef %7) #8
  %8 = load ptr, ptr %3, align 8, !tbaa !11
  %9 = getelementptr inbounds nuw %struct.tr2tls_thread_ctx, ptr %8, i32 0, i32 1
  %10 = load ptr, ptr %9, align 8, !tbaa !19
  call void @free(ptr noundef %10) #8
  %11 = load ptr, ptr %3, align 8, !tbaa !11
  call void @free(ptr noundef %11) #8
  call void @llvm.lifetime.end.p0(i64 8, ptr %3) #8
  ret void
}