; Function Attrs: mustprogress nounwind willreturn uwtable
define internal void @tr2tls_key_destructor(ptr noundef captures(none) %0) #8 {
  %2 = load ptr, ptr %0, align 8, !tbaa !25
  tail call void @free(ptr noundef %2) #11
  %3 = getelementptr inbounds nuw i8, ptr %0, i64 8
  %4 = load ptr, ptr %3, align 8, !tbaa !16
  tail call void @free(ptr noundef %4) #11
  tail call void @free(ptr noundef %0) #11
  ret void
}